target datalayout = "e-m:e-p270:32:32-p271:32:32-p272:64:64-i64:64-i128:128-f80:128-n8:16:32:64-S128"
target triple = "x86_64-pc-linux-gnu"

@.str.7 = private unnamed_addr constant [5 x i8] c"PATH\00", align 1
@.str.8 = private unnamed_addr constant [2 x i8] c":\00", align 1
@.str.9 = private unnamed_addr constant [6 x i8] c"%s/%s\00", align 1

; Function Attrs: nounwind uwtable
define hidden i32 @uv__search_path(ptr noundef %0, ptr noundef %1, ptr noundef %2) #0 {
  %4 = alloca i32, align 4
  %5 = alloca ptr, align 8
  %6 = alloca ptr, align 8
  %7 = alloca ptr, align 8
  %8 = alloca [4096 x i8], align 16
  %9 = alloca i64, align 8
  %10 = alloca [4096 x i8], align 16
  %11 = alloca ptr, align 8
  %12 = alloca ptr, align 8
  %13 = alloca ptr, align 8
  %14 = alloca ptr, align 8
  %15 = alloca i32, align 4
  store ptr %0, ptr %5, align 8
  store ptr %1, ptr %6, align 8
  store ptr %2, ptr %7, align 8
  call void @llvm.lifetime.start.p0(i64 4096, ptr %8) #11
  call void @llvm.lifetime.start.p0(i64 8, ptr %9) #11
  call void @llvm.lifetime.start.p0(i64 4096, ptr %10) #11
  call void @llvm.lifetime.start.p0(i64 8, ptr %11) #11
  call void @llvm.lifetime.start.p0(i64 8, ptr %12) #11
  call void @llvm.lifetime.start.p0(i64 8, ptr %13) #11
  call void @llvm.lifetime.start.p0(i64 8, ptr %14) #11
  %16 = load ptr, ptr %6, align 8
  %17 = icmp eq ptr %16, null
  br i1 %17, label %25, label %18

18:                                               ; preds = %3
  %19 = load ptr, ptr %7, align 8
  %20 = icmp eq ptr %19, null
  br i1 %20, label %25, label %21

21:                                               ; preds = %18
  %22 = load ptr, ptr %7, align 8
  %23 = load i64, ptr %22, align 8
  %24 = icmp eq i64 %23, 0
  br i1 %24, label %25, label %26

25:                                               ; preds = %21, %18, %3
  store i32 -22, ptr %4, align 4
  store i32 1, ptr %15, align 4
  br label %121

26:                                               ; preds = %21
  %27 = load ptr, ptr %5, align 8
  %28 = call ptr @strchr(ptr noundef %27, i32 noundef 47) #13
  %29 = icmp ne ptr %28, null
  br i1 %29, label %30, label %62

30:                                               ; preds = %26
  %31 = load ptr, ptr %5, align 8
  %32 = getelementptr inbounds [4096 x i8], ptr %8, i64 0, i64 0
  %33 = call ptr @realpath(ptr noundef %31, ptr noundef %32) #11
  %34 = getelementptr inbounds [4096 x i8], ptr %8, i64 0, i64 0
  %35 = icmp ne ptr %33, %34
  br i1 %35, label %36, label %40

36:                                               ; preds = %30
  %37 = call ptr @__errno_location() #12
  %38 = load i32, ptr %37, align 4
  %39 = sub nsw i32 0, %38
  store i32 %39, ptr %4, align 4
  store i32 1, ptr %15, align 4
  br label %121

40:                                               ; preds = %30
  %41 = getelementptr inbounds [4096 x i8], ptr %8, i64 0, i64 0
  %42 = call i64 @strlen(ptr noundef %41) #13
  store i64 %42, ptr %9, align 8
  %43 = load ptr, ptr %7, align 8
  %44 = load i64, ptr %43, align 8
  %45 = sub i64 %44, 1
  store i64 %45, ptr %43, align 8
  %46 = load ptr, ptr %7, align 8
  %47 = load i64, ptr %46, align 8
  %48 = load i64, ptr %9, align 8
  %49 = icmp ugt i64 %47, %48
  br i1 %49, label %50, label %53

50:                                               ; preds = %40
  %51 = load i64, ptr %9, align 8
  %52 = load ptr, ptr %7, align 8
  store i64 %51, ptr %52, align 8
  br label %53

53:                                               ; preds = %50, %40
  %54 = load ptr, ptr %6, align 8
  %55 = getelementptr inbounds [4096 x i8], ptr %8, i64 0, i64 0
  %56 = load ptr, ptr %7, align 8
  %57 = load i64, ptr %56, align 8
  call void @llvm.memcpy.p0.p0.i64(ptr align 1 %54, ptr align 16 %55, i64 %57, i1 false)
  %58 = load ptr, ptr %6, align 8
  %59 = load ptr, ptr %7, align 8
  %60 = load i64, ptr %59, align 8
  %61 = getelementptr inbounds nuw i8, ptr %58, i64 %60
  store i8 0, ptr %61, align 1
  store i32 0, ptr %4, align 4
  store i32 1, ptr %15, align 4
  br label %121

62:                                               ; preds = %26
  store ptr null, ptr %11, align 8
  store ptr null, ptr %13, align 8
  %63 = call ptr @getenv(ptr noundef @.str.7) #11
  store ptr %63, ptr %12, align 8
  %64 = load ptr, ptr %12, align 8
  %65 = icmp eq ptr %64, null
  br i1 %65, label %66, label %67

66:                                               ; preds = %62
  store i32 -22, ptr %4, align 4
  store i32 1, ptr %15, align 4
  br label %121

67:                                               ; preds = %62
  %68 = load ptr, ptr %12, align 8
  %69 = call ptr @uv__strdup(ptr noundef %68)
  store ptr %69, ptr %11, align 8
  %70 = load ptr, ptr %11, align 8
  %71 = icmp eq ptr %70, null
  br i1 %71, label %72, label %73

72:                                               ; preds = %67
  store i32 -12, ptr %4, align 4
  store i32 1, ptr %15, align 4
  br label %121

73:                                               ; preds = %67
  %74 = load ptr, ptr %11, align 8
  %75 = call ptr @uv__strtok(ptr noundef %74, ptr noundef @.str.8, ptr noundef %14)
  store ptr %75, ptr %13, align 8
  br label %76

76:                                               ; preds = %117, %73
  %77 = load ptr, ptr %13, align 8
  %78 = icmp ne ptr %77, null
  br i1 %78, label %79, label %119

79:                                               ; preds = %76
  %80 = getelementptr inbounds [4096 x i8], ptr %10, i64 0, i64 0
  %81 = load ptr, ptr %13, align 8
  %82 = load ptr, ptr %5, align 8
  %83 = call i32 (ptr, i64, ptr, ...) @snprintf(ptr noundef %80, i64 noundef 4095, ptr noundef @.str.9, ptr noundef %81, ptr noundef %82) #11
  %84 = getelementptr inbounds [4096 x i8], ptr %10, i64 0, i64 0
  %85 = getelementptr inbounds [4096 x i8], ptr %8, i64 0, i64 0
  %86 = call ptr @realpath(ptr noundef %84, ptr noundef %85) #11
  %87 = getelementptr inbounds [4096 x i8], ptr %8, i64 0, i64 0
  %88 = icmp eq ptr %86, %87
  br i1 %88, label %89, label %117

89:                                               ; preds = %79
  %90 = getelementptr inbounds [4096 x i8], ptr %8, i64 0, i64 0
  %91 = call i32 @access(ptr noundef %90, i32 noundef 1) #11
  %92 = icmp eq i32 %91, 0
  br i1 %92, label %93, label %116

93:                                               ; preds = %89
  %94 = getelementptr inbounds [4096 x i8], ptr %8, i64 0, i64 0
  %95 = call i64 @strlen(ptr noundef %94) #13
  store i64 %95, ptr %9, align 8
  %96 = load ptr, ptr %7, align 8
  %97 = load i64, ptr %96, align 8
  %98 = sub i64 %97, 1
  store i64 %98, ptr %96, align 8
  %99 = load ptr, ptr %7, align 8
  %100 = load i64, ptr %99, align 8
  %101 = load i64, ptr %9, align 8
  %102 = icmp ugt i64 %100, %101
  br i1 %102, label %103, label %106

103:                                              ; preds = %93
  %104 = load i64, ptr %9, align 8
  %105 = load ptr, ptr %7, align 8
  store i64 %104, ptr %105, align 8
  br label %106

106:                                              ; preds = %103, %93
  %107 = load ptr, ptr %6, align 8
  %108 = getelementptr inbounds [4096 x i8], ptr %8, i64 0, i64 0
  %109 = load ptr, ptr %7, align 8
  %110 = load i64, ptr %109, align 8
  call void @llvm.memcpy.p0.p0.i64(ptr align 1 %107, ptr align 16 %108, i64 %110, i1 false)
  %111 = load ptr, ptr %6, align 8
  %112 = load ptr, ptr %7, align 8
  %113 = load i64, ptr %112, align 8
  %114 = getelementptr inbounds nuw i8, ptr %111, i64 %113
  store i8 0, ptr %114, align 1
  %115 = load ptr, ptr %11, align 8
  call void @uv__free(ptr noundef %115)
  store i32 0, ptr %4, align 4
  store i32 1, ptr %15, align 4
  br label %121

116:                                              ; preds = %89
  br label %117

117:                                              ; preds = %116, %79
  %118 = call ptr @uv__strtok(ptr noundef null, ptr noundef @.str.8, ptr noundef %14)
  store ptr %118, ptr %13, align 8
  br label %76

119:                                              ; preds = %76
  %120 = load ptr, ptr %11, align 8
  call void @uv__free(ptr noundef %120)
  store i32 -22, ptr %4, align 4
  store i32 1, ptr %15, align 4
  br label %121

121:                                              ; preds = %119, %106, %72, %66, %53, %36, %25
  call void @llvm.lifetime.end.p0(i64 8, ptr %14) #11
  call void @llvm.lifetime.end.p0(i64 8, ptr %13) #11
  call void @llvm.lifetime.end.p0(i64 8, ptr %12) #11
  call void @llvm.lifetime.end.p0(i64 8, ptr %11) #11
  call void @llvm.lifetime.end.p0(i64 4096, ptr %10) #11
  call void @llvm.lifetime.end.p0(i64 8, ptr %9) #11
  call void @llvm.lifetime.end.p0(i64 4096, ptr %8) #11
  %122 = load i32, ptr %4, align 4
  ret i32 %122
}