; Function Attrs: nounwind uwtable
define hidden range(i32 -2147483647, -2147483648) i32 @uv__search_path(ptr noundef %0, ptr noundef writeonly captures(address_is_null) %1, ptr noundef captures(address_is_null) %2) local_unnamed_addr #0 {
  %4 = alloca [4096 x i8], align 16
  %5 = alloca [4096 x i8], align 16
  %6 = alloca ptr, align 8
  call void @llvm.lifetime.start.p0(i64 4096, ptr nonnull %4) #23
  call void @llvm.lifetime.start.p0(i64 4096, ptr nonnull %5) #23
  call void @llvm.lifetime.start.p0(i64 8, ptr nonnull %6) #23
  %7 = icmp eq ptr %1, null
  %8 = icmp eq ptr %2, null
  %or.cond = or i1 %7, %8
  br i1 %or.cond, label %48, label %9

9:                                                ; preds = %3
  %10 = load i64, ptr %2, align 8
  %11 = icmp eq i64 %10, 0
  br i1 %11, label %48, label %12

12:                                               ; preds = %9
  %13 = tail call ptr @strchr(ptr noundef nonnull dereferenceable(1) %0, i32 noundef 47) #25
  %.not = icmp eq ptr %13, null
  br i1 %.not, label %26, label %14

14:                                               ; preds = %12
  %15 = call ptr @realpath(ptr noundef nonnull %0, ptr noundef nonnull %4) #23
  %.not42 = icmp eq ptr %15, %4
  br i1 %.not42, label %20, label %16

16:                                               ; preds = %14
  %17 = tail call ptr @__errno_location() #24
  %18 = load i32, ptr %17, align 4
  %19 = sub nsw i32 0, %18
  br label %48

20:                                               ; preds = %14
  %21 = call i64 @strlen(ptr noundef nonnull dereferenceable(1) %4) #25
  %22 = load i64, ptr %2, align 8
  %23 = add i64 %22, -1
  %spec.select = call i64 @llvm.umin.i64(i64 %23, i64 %21)
  store i64 %spec.select, ptr %2, align 8
  call void @llvm.memcpy.p0.p0.i64(ptr nonnull align 1 %1, ptr nonnull align 16 %4, i64 %spec.select, i1 false)
  %24 = load i64, ptr %2, align 8
  %25 = getelementptr inbounds nuw i8, ptr %1, i64 %24
  store i8 0, ptr %25, align 1
  br label %48

26:                                               ; preds = %12
  %27 = tail call ptr @getenv(ptr noundef nonnull @.str.7) #23
  %28 = icmp eq ptr %27, null
  br i1 %28, label %48, label %29

29:                                               ; preds = %26
  %30 = tail call ptr @uv__strdup(ptr noundef nonnull %27) #23
  %31 = icmp eq ptr %30, null
  br i1 %31, label %48, label %32

32:                                               ; preds = %29
  %33 = call ptr @uv__strtok(ptr noundef nonnull %30, ptr noundef nonnull @.str.8, ptr noundef nonnull %6) #23
  %.not4145 = icmp eq ptr %33, null
  br i1 %.not4145, label %._crit_edge, label %.lr.ph

.lr.ph:                                           ; preds = %32, %46
  %.046 = phi ptr [ %47, %46 ], [ %33, %32 ]
  %34 = call i32 (ptr, i64, ptr, ...) @snprintf(ptr noundef nonnull dereferenceable(1) %5, i64 noundef 4095, ptr noundef nonnull @.str.9, ptr noundef nonnull %.046, ptr noundef nonnull %0) #23
  %35 = call ptr @realpath(ptr noundef nonnull %5, ptr noundef nonnull %4) #23
  %36 = icmp eq ptr %35, %4
  br i1 %36, label %37, label %46

37:                                               ; preds = %.lr.ph
  %38 = call i32 @access(ptr noundef nonnull %4, i32 noundef 1) #23
  %39 = icmp eq i32 %38, 0
  br i1 %39, label %40, label %46

40:                                               ; preds = %37
  %41 = call i64 @strlen(ptr noundef nonnull dereferenceable(1) %4) #25
  %42 = load i64, ptr %2, align 8
  %43 = add i64 %42, -1
  %spec.select44 = call i64 @llvm.umin.i64(i64 %43, i64 %41)
  store i64 %spec.select44, ptr %2, align 8
  call void @llvm.memcpy.p0.p0.i64(ptr align 1 %1, ptr nonnull align 16 %4, i64 %spec.select44, i1 false)
  %44 = load i64, ptr %2, align 8
  %45 = getelementptr inbounds nuw i8, ptr %1, i64 %44
  store i8 0, ptr %45, align 1
  call void @uv__free(ptr noundef nonnull %30) #23
  br label %48

46:                                               ; preds = %37, %.lr.ph
  %47 = call ptr @uv__strtok(ptr noundef null, ptr noundef nonnull @.str.8, ptr noundef nonnull %6) #23
  %.not41 = icmp eq ptr %47, null
  br i1 %.not41, label %._crit_edge, label %.lr.ph

._crit_edge:                                      ; preds = %46, %32
  call void @uv__free(ptr noundef nonnull %30) #23
  br label %48

48:                                               ; preds = %29, %26, %3, %9, %._crit_edge, %40, %20, %16
  %.033 = phi i32 [ %19, %16 ], [ 0, %20 ], [ 0, %40 ], [ -22, %._crit_edge ], [ -22, %9 ], [ -22, %3 ], [ -22, %26 ], [ -12, %29 ]
  call void @llvm.lifetime.end.p0(i64 8, ptr nonnull %6) #23
  call void @llvm.lifetime.end.p0(i64 4096, ptr nonnull %5) #23
  call void @llvm.lifetime.end.p0(i64 4096, ptr nonnull %4) #23
  ret i32 %.033
}